; Function Attrs: mustprogress uwtable
define internal fastcc void @_ZN11duckdb_zstdL19ZSTD_DCtx_trace_endEPKNS_11ZSTD_DCtx_sEmmj(ptr noundef %0, i64 noundef %1, i64 noundef %2, i32 noundef range(i32 0, 2) %3) unnamed_addr #0 {
  %5 = alloca %"struct.duckdb_zstd::ZSTD_Trace", align 8
  %6 = getelementptr inbounds nuw i8, ptr %0, i64 95968
  %7 = load i64, ptr %6, align 8, !tbaa !88
  %8 = icmp ne i64 %7, 0
  %9 = icmp ne ptr @_ZN11duckdb_zstd25ZSTD_trace_decompress_endEyPKNS_10ZSTD_TraceE, null
  %or.cond = and i1 %9, %8
  br i1 %or.cond, label %10, label %29

10:                                               ; preds = %4
  call void @llvm.lifetime.start.p0(i64 64, ptr nonnull %5) #17
  %11 = getelementptr inbounds nuw i8, ptr %5, i64 8
  call void @llvm.memset.p0.i64(ptr noundef nonnull align 8 dereferenceable(64) %11, i8 0, i64 48, i1 false)
  store i32 10506, ptr %5, align 8, !tbaa !105
  %12 = getelementptr inbounds nuw i8, ptr %5, i64 4
  store i32 %3, ptr %12, align 4, !tbaa !110
  %13 = getelementptr inbounds nuw i8, ptr %0, i64 30192
  %14 = load ptr, ptr %13, align 8, !tbaa !111
  %.not = icmp eq ptr %14, null
  br i1 %.not, label %24, label %15

15:                                               ; preds = %10
  %16 = tail call noundef i32 @_ZN11duckdb_zstd24ZSTD_getDictID_fromDDictEPKNS_12ZSTD_DDict_sE(ptr noundef nonnull %14)
  %17 = getelementptr inbounds nuw i8, ptr %5, i64 8
  store i32 %16, ptr %17, align 8, !tbaa !112
  %18 = load ptr, ptr %13, align 8, !tbaa !111
  %19 = tail call noundef i64 @_ZN11duckdb_zstd19ZSTD_DDict_dictSizeEPKNS_12ZSTD_DDict_sE(ptr noundef %18)
  %20 = getelementptr inbounds nuw i8, ptr %5, i64 16
  store i64 %19, ptr %20, align 8, !tbaa !113
  %21 = getelementptr inbounds nuw i8, ptr %0, i64 30204
  %22 = load i32, ptr %21, align 4, !tbaa !32
  %23 = getelementptr inbounds nuw i8, ptr %5, i64 12
  store i32 %22, ptr %23, align 4, !tbaa !114
  %.pre = load i64, ptr %6, align 8, !tbaa !88
  br label %24

24:                                               ; preds = %15, %10
  %25 = phi i64 [ %.pre, %15 ], [ %7, %10 ]
  %26 = getelementptr inbounds nuw i8, ptr %5, i64 24
  store i64 %1, ptr %26, align 8, !tbaa !115
  %27 = getelementptr inbounds nuw i8, ptr %5, i64 32
  store i64 %2, ptr %27, align 8, !tbaa !116
  %28 = getelementptr inbounds nuw i8, ptr %5, i64 56
  store ptr %0, ptr %28, align 8, !tbaa !117
  call void @_ZN11duckdb_zstd25ZSTD_trace_decompress_endEyPKNS_10ZSTD_TraceE(i64 noundef %25, ptr noundef nonnull %5)
  call void @llvm.lifetime.end.p0(i64 64, ptr nonnull %5) #17
  br label %29

29:                                               ; preds = %24, %4
  ret void
}